target datalayout = "e-m:e-p270:32:32-p271:32:32-p272:64:64-i64:64-i128:128-f80:128-n8:16:32:64-S128"
target triple = "x86_64-pc-linux-gnu"

%struct.SDL_joylist_item = type { i32, ptr, ptr, %struct.SDL_GUID, i64, i32, ptr, ptr, i8, ptr }
%struct.SDL_GUID = type { [16 x i8] }
%struct.joystick_hwdata = type { i32, i32, ptr, ptr, %struct.SDL_GUID, ptr, i8, i8, %struct.ff_effect, i32, ptr, ptr, [767 x i8], [63 x i8], [767 x i8], [63 x i8], i8, i8, i8, ptr, ptr, [63 x %struct.axis_correct], [3 x float], [3 x float], [3 x float], [3 x float], i64, i32, i8, i8, i8, i8, i8, [4 x i32], [4 x i8], [4 x %struct.hat_axis_correct], i8, i8 }
%struct.ff_effect = type { i16, i16, i16, %struct.ff_trigger, %struct.ff_replay, %union.anon }
%struct.ff_trigger = type { i16, i16 }
%struct.ff_replay = type { i16, i16 }
%union.anon = type { %struct.ff_periodic_effect }
%struct.ff_periodic_effect = type { i16, i16, i16, i16, i16, %struct.ff_envelope, i32, ptr }
%struct.ff_envelope = type { i16, i16, i16, i16 }
%struct.axis_correct = type { i8, [3 x i32], i32, i32, float }
%struct.hat_axis_correct = type { i8, [2 x i32], [2 x i32] }

@SDL_joylist = internal global ptr null, align 8
@SDL_joylist_tail = internal global ptr null, align 8
@numjoysticks = internal global i32 0, align 4

; Function Attrs: nounwind uwtable
define internal void @FreeJoylistItem(ptr noundef %0) #0 {
  %2 = alloca ptr, align 8
  store ptr %0, ptr %2, align 8
  %3 = load ptr, ptr %2, align 8
  %4 = getelementptr inbounds nuw %struct.SDL_joylist_item, ptr %3, i32 0, i32 9
  %5 = load ptr, ptr %4, align 8
  call void @SDL_free_REAL(ptr noundef %5)
  %6 = load ptr, ptr %2, align 8
  %7 = getelementptr inbounds nuw %struct.SDL_joylist_item, ptr %6, i32 0, i32 1
  %8 = load ptr, ptr %7, align 8
  call void @SDL_free_REAL(ptr noundef %8)
  %9 = load ptr, ptr %2, align 8
  %10 = getelementptr inbounds nuw %struct.SDL_joylist_item, ptr %9, i32 0, i32 2
  %11 = load ptr, ptr %10, align 8
  call void @SDL_free_REAL(ptr noundef %11)
  %12 = load ptr, ptr %2, align 8
  call void @SDL_free_REAL(ptr noundef %12)
  ret void
}

; Function Attrs: nounwind uwtable
define internal void @RemoveJoylistItem(ptr noundef %0, ptr noundef %1) #0 {
  %3 = alloca ptr, align 8
  %4 = alloca ptr, align 8
  store ptr %0, ptr %3, align 8
  store ptr %1, ptr %4, align 8
  call void @SDL_AssertJoysticksLocked()
  %5 = load ptr, ptr %3, align 8
  %6 = getelementptr inbounds nuw %struct.SDL_joylist_item, ptr %5, i32 0, i32 6
  %7 = load ptr, ptr %6, align 8
  %8 = icmp ne ptr %7, null
  br i1 %8, label %9, label %14

9:                                                ; preds = %2
  %10 = load ptr, ptr %3, align 8
  %11 = getelementptr inbounds nuw %struct.SDL_joylist_item, ptr %10, i32 0, i32 6
  %12 = load ptr, ptr %11, align 8
  %13 = getelementptr inbounds nuw %struct.joystick_hwdata, ptr %12, i32 0, i32 2
  store ptr null, ptr %13, align 8
  br label %14

14:                                               ; preds = %9, %2
  %15 = load ptr, ptr %4, align 8
  %16 = icmp ne ptr %15, null
  br i1 %16, label %17, label %23

17:                                               ; preds = %14
  %18 = load ptr, ptr %3, align 8
  %19 = getelementptr inbounds nuw %struct.SDL_joylist_item, ptr %18, i32 0, i32 7
  %20 = load ptr, ptr %19, align 8
  %21 = load ptr, ptr %4, align 8
  %22 = getelementptr inbounds nuw %struct.SDL_joylist_item, ptr %21, i32 0, i32 7
  store ptr %20, ptr %22, align 8
  br label %29

23:                                               ; preds = %14
  br label %24

24:                                               ; preds = %23
  br label %25

25:                                               ; preds = %24
  %26 = load ptr, ptr %3, align 8
  %27 = getelementptr inbounds nuw %struct.SDL_joylist_item, ptr %26, i32 0, i32 7
  %28 = load ptr, ptr %27, align 8
  store ptr %28, ptr @SDL_joylist, align 8
  br label %29

29:                                               ; preds = %25, %17
  %30 = load ptr, ptr %3, align 8
  %31 = load ptr, ptr @SDL_joylist_tail, align 8
  %32 = icmp eq ptr %30, %31
  br i1 %32, label %33, label %35

33:                                               ; preds = %29
  %34 = load ptr, ptr %4, align 8
  store ptr %34, ptr @SDL_joylist_tail, align 8
  br label %35

35:                                               ; preds = %33, %29
  %36 = load i32, ptr @numjoysticks, align 4
  %37 = add nsw i32 %36, -1
  store i32 %37, ptr @numjoysticks, align 4
  %38 = load ptr, ptr %3, align 8
  %39 = getelementptr inbounds nuw %struct.SDL_joylist_item, ptr %38, i32 0, i32 0
  %40 = load i32, ptr %39, align 8
  call void @SDL_PrivateJoystickRemoved(i32 noundef %40)
  %41 = load ptr, ptr %3, align 8
  call void @FreeJoylistItem(ptr noundef %41)
  ret void
}