; Function Attrs: nounwind uwtable
define internal fastcc void @RemoveJoylistItem(ptr noundef nonnull %0, ptr noundef %1) unnamed_addr #0 {
  tail call void @SDL_AssertJoysticksLocked() #18
  %3 = getelementptr inbounds nuw i8, ptr %0, i64 56
  %4 = load ptr, ptr %3, align 8
  %.not = icmp eq ptr %4, null
  br i1 %.not, label %7, label %5

5:                                                ; preds = %2
  %6 = getelementptr inbounds nuw i8, ptr %4, i64 8
  store ptr null, ptr %6, align 8
  br label %7

7:                                                ; preds = %5, %2
  %.not11 = icmp eq ptr %1, null
  %8 = getelementptr inbounds nuw i8, ptr %0, i64 64
  %9 = load ptr, ptr %8, align 8
  br i1 %.not11, label %12, label %10

10:                                               ; preds = %7
  %11 = getelementptr inbounds nuw i8, ptr %1, i64 64
  store ptr %9, ptr %11, align 8
  br label %13

12:                                               ; preds = %7
  store ptr %9, ptr @SDL_joylist, align 8
  br label %13

13:                                               ; preds = %12, %10
  %14 = load ptr, ptr @SDL_joylist_tail, align 8
  %15 = icmp eq ptr %0, %14
  br i1 %15, label %16, label %17

16:                                               ; preds = %13
  store ptr %1, ptr @SDL_joylist_tail, align 8
  br label %17

17:                                               ; preds = %16, %13
  %18 = load i32, ptr @numjoysticks, align 4
  %19 = add nsw i32 %18, -1
  store i32 %19, ptr @numjoysticks, align 4
  %20 = load i32, ptr %0, align 8
  tail call void @SDL_PrivateJoystickRemoved(i32 noundef %20) #18
  %21 = getelementptr inbounds nuw i8, ptr %0, i64 80
  %22 = load ptr, ptr %21, align 8
  tail call void @SDL_free_REAL(ptr noundef %22) #18
  %23 = getelementptr inbounds nuw i8, ptr %0, i64 8
  %24 = load ptr, ptr %23, align 8
  tail call void @SDL_free_REAL(ptr noundef %24) #18
  %25 = getelementptr inbounds nuw i8, ptr %0, i64 16
  %26 = load ptr, ptr %25, align 8
  tail call void @SDL_free_REAL(ptr noundef %26) #18
  tail call void @SDL_free_REAL(ptr noundef nonnull %0) #18
  ret void
}